#include <math.h>
#include <stdio.h>
#include <stdlib.h>
#include <string.h>

main()
{
      int a=0,b=0,c,i,j,n,s=0;
      char p[100000],q[100000];
      gets(p);
      for(i=0;i<strlen(p);i++)
      {
      if(!(p[i]==' ' && p[i+1]==' '))
      {
      q[a]=p[i];
      a++;
      }
      }
      for(i=0;i<a;i++)
      printf("%c",q[i]);
      }
